; Function Attrs: nounwind sspstrong uwtable
define internal noundef i64 @ossl_x509store_set_vfy_cb(i64 noundef %0, i64 noundef returned %1) #0 {
  %3 = tail call ptr @rb_check_typeddata(i64 noundef %0, ptr noundef nonnull @ossl_x509store_type) #5
  %.not = icmp eq ptr %3, null
  br i1 %.not, label %4, label %6

4:                                                ; preds = %2
  %5 = load i64, ptr @rb_eRuntimeError, align 8, !tbaa !20
  tail call void (i64, ptr, ...) @ossl_raise(i64 noundef %5, ptr noundef nonnull @.str.2) #7
  unreachable

6:                                                ; preds = %2
  %7 = tail call i64 @rb_iv_set(i64 noundef %0, ptr noundef nonnull @.str.40, i64 noundef %1) #5
  %8 = load i32, ptr @store_ex_verify_cb_idx, align 4, !tbaa !6
  %9 = inttoptr i64 %1 to ptr
  %10 = tail call i32 @X509_STORE_set_ex_data(ptr noundef nonnull %3, i32 noundef %8, ptr noundef %9) #5
  ret i64 %1
}